(ioptparse
Values
p0
(dp1
S'selected_nodes'
p2
(lp3
sS'autoflatten'
p4
I01
sS'filetype'
p5
S'kicad_module'
p6
sS'ids'
p7
(lp8
S'g136-8'
p9
aS'g152'
p10
aS'g170-5'
p11
aS'g176'
p12
aS'g186'
p13
aS'g200'
p14
aS'g212'
p15
aS'g226'
p16
aS'g232'
p17
aS'g238'
p18
aS'g254'
p19
aS'g260-7'
p20
aS'g264-9'
p21
aS'g268-4'
p22
aS'g274'
p23
aS'g306'
p24
aS'g312'
p25
aS'g318'
p26
aS'g324'
p27
aS'g328'
p28
aS'g332'
p29
aS'g336'
p30
aS'g340'
p31
aS'g344'
p32
aS'g352'
p33
aS'g356'
p34
aS'g360'
p35
aS'g382'
p36
aS'g402-0'
p37
aS'g408-7'
p38
aS'g426-3'
p39
aS'g446'
p40
aS'g464'
p41
aS'g480'
p42
aS'g486'
p43
aS'g498'
p44
aS'g504'
p45
aS'g518'
p46
aS'g524'
p47
aS'g532'
p48
aS'g538'
p49
aS'g548'
p50
aS'g554'
p51
aS'g560'
p52
aS'g566'
p53
aS'polyline568-5'
p54
aS'polyline570-9'
p55
aS'polyline574'
p56
aS'path576-5'
p57
aS'path578'
p58
aS'path580'
p59
aS'path586'
p60
aS'path588-9'
p61
aS'text1485'
p62
aS'g606-5'
p63
aS'g610'
p64
aS'g616'
p65
aS'g622'
p66
aS'g668'
p67
asS'crop'
p68
I00
sS'debug'
p69
I00
sS'openkicad'
p70
I00
sS'openfactory'
p71
I00
sS'threshold'
p72
F128.0
sS'path'
p73
S"C:\\Users\\Maker's Box\\Documents\\git\\KiCad\\projects\\Nerf\\Ardu RapidStrike\\design_files Stryfe MOSFET V01\\footprints.pretty"
p74
sS'dpi'
p75
F600.0
sb.