(ioptparse
Values
p0
(dp1
S'selected_nodes'
p2
(lp3
sS'autoflatten'
p4
I01
sS'filetype'
p5
S'kicad_module'
p6
sS'ids'
p7
(lp8
sS'crop'
p9
I00
sS'debug'
p10
I00
sS'openkicad'
p11
I00
sS'openfactory'
p12
I00
sS'threshold'
p13
F128.0
sS'path'
p14
S"C:\\Users\\Maker's Box\\Documents\\git\\KiCad\\projects\\Nerf\\design_files_MOSFET\\footprints.pretty"
p15
sS'dpi'
p16
F600.0
sb.